target datalayout = "e-m:e-p270:32:32-p271:32:32-p272:64:64-i64:64-i128:128-f80:128-n8:16:32:64-S128"
target triple = "x86_64-pc-linux-gnu"

%"struct.duckdb_libpgquery::PGAExpr" = type { i32, i32, ptr, ptr, ptr, i32 }

; Function Attrs: mustprogress uwtable
define hidden noundef ptr @_ZN17duckdb_libpgquery15makeSimpleAExprENS_12PGAExpr_KindEPKcPNS_6PGNodeES4_i(i32 noundef %0, ptr noundef %1, ptr noundef %2, ptr noundef %3, i32 noundef %4) #0 {
  %6 = alloca i32, align 4
  %7 = alloca ptr, align 8
  %8 = alloca ptr, align 8
  %9 = alloca ptr, align 8
  %10 = alloca i32, align 4
  %11 = alloca ptr, align 8
  store i32 %0, ptr %6, align 4, !tbaa !3
  store ptr %1, ptr %7, align 8, !tbaa !23
  store ptr %2, ptr %8, align 8, !tbaa !10
  store ptr %3, ptr %9, align 8, !tbaa !10
  store i32 %4, ptr %10, align 4, !tbaa !12
  call void @llvm.lifetime.start.p0(i64 8, ptr %11) #3
  %12 = call noundef ptr @_ZN17duckdb_libpgquery7newNodeEmNS_9PGNodeTagE(i64 noundef 40, i32 noundef 352)
  store ptr %12, ptr %11, align 8, !tbaa !14
  %13 = load i32, ptr %6, align 4, !tbaa !3
  %14 = load ptr, ptr %11, align 8, !tbaa !14
  %15 = getelementptr inbounds nuw %"struct.duckdb_libpgquery::PGAExpr", ptr %14, i32 0, i32 1
  store i32 %13, ptr %15, align 4, !tbaa !16
  %16 = load ptr, ptr %7, align 8, !tbaa !23
  %17 = call noundef ptr @_ZN17duckdb_libpgquery10makeStringEPKc(ptr noundef %16)
  %18 = call noundef ptr @_ZN17duckdb_libpgquery5lconsEPvPNS_6PGListE(ptr noundef %17, ptr noundef null)
  %19 = load ptr, ptr %11, align 8, !tbaa !14
  %20 = getelementptr inbounds nuw %"struct.duckdb_libpgquery::PGAExpr", ptr %19, i32 0, i32 2
  store ptr %18, ptr %20, align 8, !tbaa !19
  %21 = load ptr, ptr %8, align 8, !tbaa !10
  %22 = load ptr, ptr %11, align 8, !tbaa !14
  %23 = getelementptr inbounds nuw %"struct.duckdb_libpgquery::PGAExpr", ptr %22, i32 0, i32 3
  store ptr %21, ptr %23, align 8, !tbaa !20
  %24 = load ptr, ptr %9, align 8, !tbaa !10
  %25 = load ptr, ptr %11, align 8, !tbaa !14
  %26 = getelementptr inbounds nuw %"struct.duckdb_libpgquery::PGAExpr", ptr %25, i32 0, i32 4
  store ptr %24, ptr %26, align 8, !tbaa !21
  %27 = load i32, ptr %10, align 4, !tbaa !12
  %28 = load ptr, ptr %11, align 8, !tbaa !14
  %29 = getelementptr inbounds nuw %"struct.duckdb_libpgquery::PGAExpr", ptr %28, i32 0, i32 5
  store i32 %27, ptr %29, align 8, !tbaa !22
  %30 = load ptr, ptr %11, align 8, !tbaa !14
  call void @llvm.lifetime.end.p0(i64 8, ptr %11) #3
  ret ptr %30
}