; Function Attrs: mustprogress uwtable
define hidden noundef ptr @_ZN17duckdb_libpgquery15makeSimpleAExprENS_12PGAExpr_KindEPKcPNS_6PGNodeES4_i(i32 noundef %0, ptr noundef %1, ptr noundef %2, ptr noundef %3, i32 noundef %4) local_unnamed_addr #0 {
  %6 = tail call noundef ptr @_ZN17duckdb_libpgquery7newNodeEmNS_9PGNodeTagE(i64 noundef 40, i32 noundef 352)
  %7 = getelementptr inbounds nuw i8, ptr %6, i64 4
  store i32 %0, ptr %7, align 4, !tbaa !3
  %8 = tail call noundef ptr @_ZN17duckdb_libpgquery10makeStringEPKc(ptr noundef %1)
  %9 = tail call noundef ptr @_ZN17duckdb_libpgquery5lconsEPvPNS_6PGListE(ptr noundef %8, ptr noundef null)
  %10 = getelementptr inbounds nuw i8, ptr %6, i64 8
  store ptr %9, ptr %10, align 8, !tbaa !13
  %11 = getelementptr inbounds nuw i8, ptr %6, i64 16
  store ptr %2, ptr %11, align 8, !tbaa !14
  %12 = getelementptr inbounds nuw i8, ptr %6, i64 24
  store ptr %3, ptr %12, align 8, !tbaa !15
  %13 = getelementptr inbounds nuw i8, ptr %6, i64 32
  store i32 %4, ptr %13, align 8, !tbaa !16
  ret ptr %6
}